target datalayout = "e-m:e-p270:32:32-p271:32:32-p272:64:64-i64:64-i128:128-f80:128-n8:16:32:64-S128"
target triple = "x86_64-pc-linux-gnu"

%union.pthread_mutex_t = type { %struct.__pthread_mutex_s }
%struct.__pthread_mutex_s = type { i32, i32, i32, i32, i32, i16, i16, %struct.__pthread_internal_list }
%struct.__pthread_internal_list = type { ptr, ptr }
%struct.wolfSSL_RefWithMutex = type { %union.pthread_mutex_t, i32 }
%struct.WOLFSSL_CTX = type <{ ptr, %struct.wolfSSL_RefWithMutex, i32, [4 x i8], %struct.WOLFSSL_BUFFER_INFO, %struct.WOLFSSL_BUFFER_INFO, ptr, ptr, i32, [4 x i8], ptr, i8, i8, [2 x i8], i32, i32, [4 x i8], ptr, ptr, ptr, i8, i16, i8, i8, i8, i16, i16, i16, i16, [2 x i8], i64, ptr, ptr, ptr, ptr, i32, i32, i16, [2 x i8], i32, [10 x i16], i8, [3 x i8], ptr, ptr, i32, [4 x i8], ptr, i8, [7 x i8] }>
%struct.WOLFSSL_BUFFER_INFO = type { ptr, i32 }

; Function Attrs: nounwind uwtable
define internal i64 @wolf_set_options(i64 noundef %0, i64 noundef %1) #0 {
  %3 = alloca i64, align 8
  %4 = alloca i64, align 8
  store i64 %0, ptr %3, align 8, !tbaa !22
  store i64 %1, ptr %4, align 8, !tbaa !22
  %5 = load i64, ptr %4, align 8, !tbaa !22
  %6 = and i64 %5, 1049599
  %7 = icmp eq i64 %6, 1049599
  br i1 %7, label %8, label %11

8:                                                ; preds = %2
  br label %9

9:                                                ; preds = %8
  br label %10

10:                                               ; preds = %9
  br label %11

11:                                               ; preds = %10, %2
  %12 = load i64, ptr %4, align 8, !tbaa !22
  %13 = and i64 %12, 4194304
  %14 = icmp eq i64 %13, 4194304
  br i1 %14, label %15, label %18

15:                                               ; preds = %11
  br label %16

16:                                               ; preds = %15
  br label %17

17:                                               ; preds = %16
  br label %18

18:                                               ; preds = %17, %11
  %19 = load i64, ptr %4, align 8, !tbaa !22
  %20 = and i64 %19, 1073741824
  %21 = icmp eq i64 %20, 1073741824
  br i1 %21, label %22, label %25

22:                                               ; preds = %18
  br label %23

23:                                               ; preds = %22
  br label %24

24:                                               ; preds = %23
  br label %25

25:                                               ; preds = %24, %18
  %26 = load i64, ptr %4, align 8, !tbaa !22
  %27 = and i64 %26, 134217728
  %28 = icmp eq i64 %27, 134217728
  br i1 %28, label %29, label %32

29:                                               ; preds = %25
  br label %30

30:                                               ; preds = %29
  br label %31

31:                                               ; preds = %30
  br label %32

32:                                               ; preds = %31, %25
  %33 = load i64, ptr %4, align 8, !tbaa !22
  %34 = and i64 %33, 67108864
  %35 = icmp eq i64 %34, 67108864
  br i1 %35, label %36, label %39

36:                                               ; preds = %32
  br label %37

37:                                               ; preds = %36
  br label %38

38:                                               ; preds = %37
  br label %39

39:                                               ; preds = %38, %32
  %40 = load i64, ptr %4, align 8, !tbaa !22
  %41 = and i64 %40, 8192
  %42 = icmp eq i64 %41, 8192
  br i1 %42, label %43, label %46

43:                                               ; preds = %39
  br label %44

44:                                               ; preds = %43
  br label %45

45:                                               ; preds = %44
  br label %46

46:                                               ; preds = %45, %39
  %47 = load i64, ptr %4, align 8, !tbaa !22
  %48 = and i64 %47, 4096
  %49 = icmp eq i64 %48, 4096
  br i1 %49, label %50, label %53

50:                                               ; preds = %46
  br label %51

51:                                               ; preds = %50
  br label %52

52:                                               ; preds = %51
  br label %53

53:                                               ; preds = %52, %46
  %54 = load i64, ptr %4, align 8, !tbaa !22
  %55 = and i64 %54, 33554432
  %56 = icmp eq i64 %55, 33554432
  br i1 %56, label %57, label %60

57:                                               ; preds = %53
  br label %58

58:                                               ; preds = %57
  br label %59

59:                                               ; preds = %58
  br label %60

60:                                               ; preds = %59, %53
  %61 = load i64, ptr %4, align 8, !tbaa !22
  %62 = and i64 %61, 268435456
  %63 = icmp eq i64 %62, 268435456
  br i1 %63, label %64, label %67

64:                                               ; preds = %60
  br label %65

65:                                               ; preds = %64
  br label %66

66:                                               ; preds = %65
  br label %67

67:                                               ; preds = %66, %60
  %68 = load i64, ptr %3, align 8, !tbaa !22
  %69 = load i64, ptr %4, align 8, !tbaa !22
  %70 = or i64 %68, %69
  ret i64 %70
}

; Function Attrs: nounwind uwtable
define i64 @wolfSSL_CTX_set_options(ptr noundef %0, i64 noundef %1) #0 {
  %3 = alloca i64, align 8
  %4 = alloca ptr, align 8
  %5 = alloca i64, align 8
  store ptr %0, ptr %4, align 8, !tbaa !24
  store i64 %1, ptr %5, align 8, !tbaa !22
  br label %6

6:                                                ; preds = %2
  br label %7

7:                                                ; preds = %6
  %8 = load ptr, ptr %4, align 8, !tbaa !24
  %9 = icmp eq ptr %8, null
  br i1 %9, label %10, label %11

10:                                               ; preds = %7
  store i64 -173, ptr %3, align 8
  br label %22

11:                                               ; preds = %7
  %12 = load ptr, ptr %4, align 8, !tbaa !24
  %13 = getelementptr inbounds nuw %struct.WOLFSSL_CTX, ptr %12, i32 0, i32 30
  %14 = load i64, ptr %13, align 8, !tbaa !272
  %15 = load i64, ptr %5, align 8, !tbaa !22
  %16 = call i64 @wolf_set_options(i64 noundef %14, i64 noundef %15)
  %17 = load ptr, ptr %4, align 8, !tbaa !24
  %18 = getelementptr inbounds nuw %struct.WOLFSSL_CTX, ptr %17, i32 0, i32 30
  store i64 %16, ptr %18, align 8, !tbaa !272
  %19 = load ptr, ptr %4, align 8, !tbaa !24
  %20 = getelementptr inbounds nuw %struct.WOLFSSL_CTX, ptr %19, i32 0, i32 30
  %21 = load i64, ptr %20, align 8, !tbaa !272
  store i64 %21, ptr %3, align 8
  br label %22

22:                                               ; preds = %11, %10
  %23 = load i64, ptr %3, align 8
  ret i64 %23
}