; Function Attrs: mustprogress nofree norecurse nosync nounwind willreturn memory(argmem: readwrite) uwtable
define i64 @wolfSSL_CTX_set_options(ptr noundef captures(address_is_null) %0, i64 noundef %1) local_unnamed_addr #4 {
  %3 = icmp eq ptr %0, null
  br i1 %3, label %8, label %4

4:                                                ; preds = %2
  %5 = getelementptr inbounds nuw i8, ptr %0, i64 184
  %6 = load i64, ptr %5, align 8, !tbaa !246
  %7 = or i64 %6, %1
  store i64 %7, ptr %5, align 8, !tbaa !246
  br label %8

8:                                                ; preds = %2, %4
  %.0 = phi i64 [ %7, %4 ], [ -173, %2 ]
  ret i64 %.0
}